target datalayout = "e-m:e-p270:32:32-p271:32:32-p272:64:64-i64:64-i128:128-f80:128-n8:16:32:64-S128"
target triple = "x86_64-pc-linux-gnu"

%struct.SDL_AudioStream = type { ptr, i32, ptr, ptr, ptr, ptr, %struct.SDL_AudioSpec, %struct.SDL_AudioSpec, ptr, ptr, float, float, ptr, %struct.SDL_AudioSpec, ptr, [8 x i32], i64, ptr, i64, i8, ptr, ptr, ptr, ptr, ptr }
%struct.SDL_AudioSpec = type { i32, i32, i32 }

@.str = private unnamed_addr constant [26 x i8] c"Parameter '%s' is invalid\00", align 1
@.str.1 = private unnamed_addr constant [7 x i8] c"stream\00", align 1
@.str.10 = private unnamed_addr constant [25 x i8] c"Wrong number of channels\00", align 1
@.str.11 = private unnamed_addr constant [24 x i8] c"Invalid channel mapping\00", align 1

; Function Attrs: nounwind uwtable
define hidden zeroext i1 @SDL_ChannelMapIsDefault(ptr noundef %0, i32 noundef %1) #0 {
  %3 = alloca i1, align 1
  %4 = alloca ptr, align 8
  %5 = alloca i32, align 4
  %6 = alloca i32, align 4
  %7 = alloca i32, align 4
  store ptr %0, ptr %4, align 8
  store i32 %1, ptr %5, align 4
  %8 = load ptr, ptr %4, align 8
  %9 = icmp ne ptr %8, null
  br i1 %9, label %10, label %32

10:                                               ; preds = %2
  call void @llvm.lifetime.start.p0(i64 4, ptr %6) #7
  store i32 0, ptr %6, align 4
  br label %11

11:                                               ; preds = %26, %10
  %12 = load i32, ptr %6, align 4
  %13 = load i32, ptr %5, align 4
  %14 = icmp slt i32 %12, %13
  br i1 %14, label %16, label %15

15:                                               ; preds = %11
  store i32 2, ptr %7, align 4
  br label %29

16:                                               ; preds = %11
  %17 = load ptr, ptr %4, align 8
  %18 = load i32, ptr %6, align 4
  %19 = sext i32 %18 to i64
  %20 = getelementptr inbounds i32, ptr %17, i64 %19
  %21 = load i32, ptr %20, align 4
  %22 = load i32, ptr %6, align 4
  %23 = icmp ne i32 %21, %22
  br i1 %23, label %24, label %25

24:                                               ; preds = %16
  store i1 false, ptr %3, align 1
  store i32 1, ptr %7, align 4
  br label %29

25:                                               ; preds = %16
  br label %26

26:                                               ; preds = %25
  %27 = load i32, ptr %6, align 4
  %28 = add nsw i32 %27, 1
  store i32 %28, ptr %6, align 4
  br label %11, !llvm.loop !5

29:                                               ; preds = %24, %15
  call void @llvm.lifetime.end.p0(i64 4, ptr %6) #7
  %30 = load i32, ptr %7, align 4
  switch i32 %30, label %35 [
    i32 2, label %31
    i32 1, label %33
  ]

31:                                               ; preds = %29
  br label %32

32:                                               ; preds = %31, %2
  store i1 true, ptr %3, align 1
  br label %33

33:                                               ; preds = %32, %29
  %34 = load i1, ptr %3, align 1
  ret i1 %34

35:                                               ; preds = %29
  unreachable
}

; Function Attrs: nounwind uwtable
define hidden zeroext i1 @SDL_ChannelMapIsBogus(ptr noundef %0, i32 noundef %1) #0 {
  %3 = alloca i1, align 1
  %4 = alloca ptr, align 8
  %5 = alloca i32, align 4
  %6 = alloca i32, align 4
  %7 = alloca i32, align 4
  %8 = alloca i32, align 4
  store ptr %0, ptr %4, align 8
  store i32 %1, ptr %5, align 4
  %9 = load ptr, ptr %4, align 8
  %10 = icmp ne ptr %9, null
  br i1 %10, label %11, label %40

11:                                               ; preds = %2
  call void @llvm.lifetime.start.p0(i64 4, ptr %6) #7
  store i32 0, ptr %6, align 4
  br label %12

12:                                               ; preds = %34, %11
  %13 = load i32, ptr %6, align 4
  %14 = load i32, ptr %5, align 4
  %15 = icmp slt i32 %13, %14
  br i1 %15, label %17, label %16

16:                                               ; preds = %12
  store i32 2, ptr %7, align 4
  br label %37

17:                                               ; preds = %12
  call void @llvm.lifetime.start.p0(i64 4, ptr %8) #7
  %18 = load ptr, ptr %4, align 8
  %19 = load i32, ptr %6, align 4
  %20 = sext i32 %19 to i64
  %21 = getelementptr inbounds i32, ptr %18, i64 %20
  %22 = load i32, ptr %21, align 4
  store i32 %22, ptr %8, align 4
  %23 = load i32, ptr %8, align 4
  %24 = icmp slt i32 %23, -1
  br i1 %24, label %29, label %25

25:                                               ; preds = %17
  %26 = load i32, ptr %8, align 4
  %27 = load i32, ptr %5, align 4
  %28 = icmp sge i32 %26, %27
  br i1 %28, label %29, label %30

29:                                               ; preds = %25, %17
  store i1 true, ptr %3, align 1
  store i32 1, ptr %7, align 4
  br label %31

30:                                               ; preds = %25
  store i32 0, ptr %7, align 4
  br label %31

31:                                               ; preds = %30, %29
  call void @llvm.lifetime.end.p0(i64 4, ptr %8) #7
  %32 = load i32, ptr %7, align 4
  switch i32 %32, label %37 [
    i32 0, label %33
  ]

33:                                               ; preds = %31
  br label %34

34:                                               ; preds = %33
  %35 = load i32, ptr %6, align 4
  %36 = add nsw i32 %35, 1
  store i32 %36, ptr %6, align 4
  br label %12, !llvm.loop !3

37:                                               ; preds = %31, %16
  call void @llvm.lifetime.end.p0(i64 4, ptr %6) #7
  %38 = load i32, ptr %7, align 4
  switch i32 %38, label %43 [
    i32 2, label %39
    i32 1, label %41
  ]

39:                                               ; preds = %37
  br label %40

40:                                               ; preds = %39, %2
  store i1 false, ptr %3, align 1
  br label %41

41:                                               ; preds = %40, %37
  %42 = load i1, ptr %3, align 1
  ret i1 %42

43:                                               ; preds = %37
  unreachable
}

; Function Attrs: nounwind uwtable
define hidden zeroext i1 @SetAudioStreamChannelMap(ptr noundef %0, ptr noundef %1, ptr noundef %2, ptr noundef %3, i32 noundef %4, i32 noundef %5) #0 {
  %7 = alloca i1, align 1
  %8 = alloca ptr, align 8
  %9 = alloca ptr, align 8
  %10 = alloca ptr, align 8
  %11 = alloca ptr, align 8
  %12 = alloca i32, align 4
  %13 = alloca i32, align 4
  %14 = alloca i8, align 1
  %15 = alloca ptr, align 8
  store ptr %0, ptr %8, align 8
  store ptr %1, ptr %9, align 8
  store ptr %2, ptr %10, align 8
  store ptr %3, ptr %11, align 8
  store i32 %4, ptr %12, align 4
  store i32 %5, ptr %13, align 4
  %16 = load ptr, ptr %8, align 8
  %17 = icmp ne ptr %16, null
  br i1 %17, label %20, label %18

18:                                               ; preds = %6
  %19 = call zeroext i1 (ptr, ...) @SDL_SetError_REAL(ptr noundef @.str, ptr noundef @.str.1)
  store i1 %19, ptr %7, align 1
  br label %101

20:                                               ; preds = %6
  call void @llvm.lifetime.start.p0(i64 1, ptr %14) #7
  store i8 1, ptr %14, align 1
  %21 = load ptr, ptr %8, align 8
  %22 = getelementptr inbounds nuw %struct.SDL_AudioStream, ptr %21, i32 0, i32 0
  %23 = load ptr, ptr %22, align 8
  call void @SDL_LockMutex_REAL(ptr noundef %23)
  %24 = load i32, ptr %12, align 4
  %25 = load ptr, ptr %9, align 8
  %26 = getelementptr inbounds nuw %struct.SDL_AudioSpec, ptr %25, i32 0, i32 1
  %27 = load i32, ptr %26, align 4
  %28 = icmp ne i32 %24, %27
  br i1 %28, label %29, label %32

29:                                               ; preds = %20
  %30 = call zeroext i1 (ptr, ...) @SDL_SetError_REAL(ptr noundef @.str.10)
  %31 = zext i1 %30 to i8
  store i8 %31, ptr %14, align 1
  br label %95

32:                                               ; preds = %20
  %33 = load ptr, ptr %10, align 8
  %34 = load ptr, ptr %33, align 8
  %35 = icmp ne ptr %34, null
  br i1 %35, label %40, label %36

36:                                               ; preds = %32
  %37 = load ptr, ptr %11, align 8
  %38 = icmp ne ptr %37, null
  br i1 %38, label %40, label %39

39:                                               ; preds = %36
  br label %94

40:                                               ; preds = %36, %32
  %41 = load ptr, ptr %10, align 8
  %42 = load ptr, ptr %41, align 8
  %43 = icmp ne ptr %42, null
  br i1 %43, label %44, label %57

44:                                               ; preds = %40
  %45 = load ptr, ptr %11, align 8
  %46 = icmp ne ptr %45, null
  br i1 %46, label %47, label %57

47:                                               ; preds = %44
  %48 = load ptr, ptr %10, align 8
  %49 = load ptr, ptr %48, align 8
  %50 = load ptr, ptr %11, align 8
  %51 = load i32, ptr %12, align 4
  %52 = sext i32 %51 to i64
  %53 = mul i64 4, %52
  %54 = call i32 @SDL_memcmp_REAL(ptr noundef %49, ptr noundef %50, i64 noundef %53)
  %55 = icmp eq i32 %54, 0
  br i1 %55, label %56, label %57

56:                                               ; preds = %47
  br label %93

57:                                               ; preds = %47, %44, %40
  %58 = load ptr, ptr %11, align 8
  %59 = load i32, ptr %12, align 4
  %60 = call zeroext i1 @SDL_ChannelMapIsBogus(ptr noundef %58, i32 noundef %59)
  br i1 %60, label %61, label %64

61:                                               ; preds = %57
  %62 = call zeroext i1 (ptr, ...) @SDL_SetError_REAL(ptr noundef @.str.11)
  %63 = zext i1 %62 to i8
  store i8 %63, ptr %14, align 1
  br label %92

64:                                               ; preds = %57
  %65 = load ptr, ptr %11, align 8
  %66 = load i32, ptr %12, align 4
  %67 = call zeroext i1 @SDL_ChannelMapIsDefault(ptr noundef %65, i32 noundef %66)
  br i1 %67, label %68, label %69

68:                                               ; preds = %64
  store ptr null, ptr %11, align 8
  br label %69

69:                                               ; preds = %68, %64
  %70 = load ptr, ptr %11, align 8
  %71 = icmp ne ptr %70, null
  br i1 %71, label %72, label %87

72:                                               ; preds = %69
  call void @llvm.lifetime.start.p0(i64 8, ptr %15) #7
  %73 = load ptr, ptr %11, align 8
  %74 = load i32, ptr %12, align 4
  %75 = call ptr @SDL_ChannelMapDup(ptr noundef %73, i32 noundef %74)
  store ptr %75, ptr %15, align 8
  %76 = load ptr, ptr %15, align 8
  %77 = icmp ne ptr %76, null
  br i1 %77, label %81, label %78

78:                                               ; preds = %72
  %79 = call zeroext i1 (ptr, ...) @SDL_SetError_REAL(ptr noundef @.str.11)
  %80 = zext i1 %79 to i8
  store i8 %80, ptr %14, align 1
  br label %86

81:                                               ; preds = %72
  %82 = load ptr, ptr %10, align 8
  %83 = load ptr, ptr %82, align 8
  call void @SDL_free_REAL(ptr noundef %83)
  %84 = load ptr, ptr %15, align 8
  %85 = load ptr, ptr %10, align 8
  store ptr %84, ptr %85, align 8
  br label %86

86:                                               ; preds = %81, %78
  call void @llvm.lifetime.end.p0(i64 8, ptr %15) #7
  br label %91

87:                                               ; preds = %69
  %88 = load ptr, ptr %10, align 8
  %89 = load ptr, ptr %88, align 8
  call void @SDL_free_REAL(ptr noundef %89)
  %90 = load ptr, ptr %10, align 8
  store ptr null, ptr %90, align 8
  br label %91

91:                                               ; preds = %87, %86
  br label %92

92:                                               ; preds = %91, %61
  br label %93

93:                                               ; preds = %92, %56
  br label %94

94:                                               ; preds = %93, %39
  br label %95

95:                                               ; preds = %94, %29
  %96 = load ptr, ptr %8, align 8
  %97 = getelementptr inbounds nuw %struct.SDL_AudioStream, ptr %96, i32 0, i32 0
  %98 = load ptr, ptr %97, align 8
  call void @SDL_UnlockMutex_REAL(ptr noundef %98)
  %99 = load i8, ptr %14, align 1, !range !6, !noundef !7
  %100 = trunc i8 %99 to i1
  store i1 %100, ptr %7, align 1
  call void @llvm.lifetime.end.p0(i64 1, ptr %14) #7
  br label %101

101:                                              ; preds = %95, %18
  %102 = load i1, ptr %7, align 1
  ret i1 %102
}