; Function Attrs: nounwind uwtable
define hidden zeroext i1 @SetAudioStreamChannelMap(ptr noundef readonly captures(address_is_null) %0, ptr noundef readonly captures(none) %1, ptr noundef captures(none) %2, ptr noundef %3, i32 noundef %4, i32 %5) local_unnamed_addr #2 {
  %.not = icmp eq ptr %0, null
  br i1 %.not, label %7, label %9

7:                                                ; preds = %6
  %8 = tail call zeroext i1 (ptr, ...) @SDL_SetError_REAL(ptr noundef nonnull @.str, ptr noundef nonnull @.str.1) #11
  br label %44

9:                                                ; preds = %6
  %10 = load ptr, ptr %0, align 8
  tail call void @SDL_LockMutex_REAL(ptr noundef %10) #11
  %11 = getelementptr inbounds nuw i8, ptr %1, i64 4
  %12 = load i32, ptr %11, align 4
  %.not36 = icmp eq i32 %4, %12
  br i1 %.not36, label %15, label %13

13:                                               ; preds = %9
  %14 = tail call zeroext i1 (ptr, ...) @SDL_SetError_REAL(ptr noundef nonnull @.str.10) #11
  br label %42

15:                                               ; preds = %9
  %16 = load ptr, ptr %2, align 8
  %17 = icmp ne ptr %16, null
  %18 = icmp ne ptr %3, null
  %or.cond = or i1 %18, %17
  br i1 %or.cond, label %19, label %42

19:                                               ; preds = %15
  %or.cond3 = and i1 %18, %17
  br i1 %or.cond3, label %20, label %25

20:                                               ; preds = %19
  %21 = sext i32 %4 to i64
  %22 = shl nsw i64 %21, 2
  %23 = tail call i32 @SDL_memcmp_REAL(ptr noundef nonnull %16, ptr noundef nonnull %3, i64 noundef %22) #11
  %24 = icmp eq i32 %23, 0
  br i1 %24, label %42, label %25

25:                                               ; preds = %20, %19
  %26 = icmp sgt i32 %4, 0
  %or.cond23.i = and i1 %18, %26
  br i1 %or.cond23.i, label %.critedge.preheader.i, label %.thread

.critedge.preheader.i:                            ; preds = %25
  %wide.trip.count.i = zext nneg i32 %4 to i64
  br label %.critedge.i

27:                                               ; preds = %.critedge.i
  %indvars.iv.next.i = add nuw nsw i64 %indvars.iv.i, 1
  %exitcond.not.i = icmp eq i64 %indvars.iv.next.i, %wide.trip.count.i
  br i1 %exitcond.not.i, label %.lr.ph.i, label %.critedge.i, !llvm.loop !3

.critedge.i:                                      ; preds = %27, %.critedge.preheader.i
  %indvars.iv.i = phi i64 [ 0, %.critedge.preheader.i ], [ %indvars.iv.next.i, %27 ]
  %28 = getelementptr inbounds nuw i32, ptr %3, i64 %indvars.iv.i
  %29 = load i32, ptr %28, align 4
  %30 = icmp slt i32 %29, -1
  %.not17.i = icmp sge i32 %29, %4
  %or.cond.not.i = or i1 %30, %.not17.i
  br i1 %or.cond.not.i, label %SDL_ChannelMapIsBogus.exit, label %27

SDL_ChannelMapIsBogus.exit:                       ; preds = %.critedge.i
  %31 = tail call zeroext i1 (ptr, ...) @SDL_SetError_REAL(ptr noundef nonnull @.str.11) #11
  br label %42

32:                                               ; preds = %.lr.ph.i
  %indvars.iv.next.i42 = add nuw nsw i64 %indvars.iv.i41, 1
  %exitcond.not.i43 = icmp eq i64 %indvars.iv.next.i42, %wide.trip.count.i
  br i1 %exitcond.not.i43, label %.thread, label %.lr.ph.i, !llvm.loop !5

.lr.ph.i:                                         ; preds = %27, %32
  %indvars.iv.i41 = phi i64 [ %indvars.iv.next.i42, %32 ], [ 0, %27 ]
  %33 = getelementptr inbounds nuw i32, ptr %3, i64 %indvars.iv.i41
  %34 = load i32, ptr %33, align 4
  %35 = zext i32 %34 to i64
  %.not11.i = icmp eq i64 %indvars.iv.i41, %35
  br i1 %.not11.i, label %32, label %SDL_ChannelMapIsDefault.exit

SDL_ChannelMapIsDefault.exit:                     ; preds = %.lr.ph.i
  %36 = tail call ptr @SDL_ChannelMapDup(ptr noundef nonnull %3, i32 noundef %4) #11
  %.not38 = icmp eq ptr %36, null
  br i1 %.not38, label %37, label %39

37:                                               ; preds = %SDL_ChannelMapIsDefault.exit
  %38 = tail call zeroext i1 (ptr, ...) @SDL_SetError_REAL(ptr noundef nonnull @.str.11) #11
  br label %42

39:                                               ; preds = %SDL_ChannelMapIsDefault.exit
  %40 = load ptr, ptr %2, align 8
  tail call void @SDL_free_REAL(ptr noundef %40) #11
  store ptr %36, ptr %2, align 8
  br label %42

.thread:                                          ; preds = %32, %25
  %41 = load ptr, ptr %2, align 8
  tail call void @SDL_free_REAL(ptr noundef %41) #11
  store ptr null, ptr %2, align 8
  br label %42

42:                                               ; preds = %37, %39, %15, %SDL_ChannelMapIsBogus.exit, %.thread, %20, %13
  %.029 = phi i1 [ %14, %13 ], [ true, %20 ], [ %31, %SDL_ChannelMapIsBogus.exit ], [ true, %.thread ], [ true, %15 ], [ true, %39 ], [ %38, %37 ]
  %43 = load ptr, ptr %0, align 8
  tail call void @SDL_UnlockMutex_REAL(ptr noundef %43) #11
  br label %44

44:                                               ; preds = %42, %7
  %.0 = phi i1 [ %.029, %42 ], [ %8, %7 ]
  ret i1 %.0
}